; Function Attrs: mustprogress nounwind uwtable
define dso_local noundef zeroext i1 @_ZNK3net14QuicSpdyStream22FinishedReadingHeadersEv(ptr noundef nonnull align 8 dereferenceable(664) %this) local_unnamed_addr #3 align 2 {
entry:
  %headers_decompressed_ = getelementptr inbounds i8, ptr %this, i64 400
  %0 = load i8, ptr %headers_decompressed_, align 8
  %1 = and i8 %0, 1
  %tobool.not = icmp eq i8 %1, 0
  br i1 %tobool.not, label %land.end, label %land.lhs.true

land.lhs.true:                                    ; preds = %entry
  %decompressed_headers_ = getelementptr inbounds i8, ptr %this, i64 408
  %call = tail call noundef zeroext i1 @_ZNKSt7__cxx1112basic_stringIcSt11char_traitsIcESaIcEE5emptyEv(ptr noundef nonnull align 8 dereferenceable(32) %decompressed_headers_) #12
  br i1 %call, label %land.rhs, label %land.end

land.rhs:                                         ; preds = %land.lhs.true
  %_M_finish.i.i = getelementptr inbounds i8, ptr %this, i64 496
  %_M_start.i.i = getelementptr inbounds i8, ptr %this, i64 464
  %2 = load ptr, ptr %_M_finish.i.i, align 8
  %3 = load ptr, ptr %_M_start.i.i, align 8
  %cmp.i.i.i = icmp eq ptr %2, %3
  br label %land.end

land.end:                                         ; preds = %land.rhs, %land.lhs.true, %entry
  %4 = phi i1 [ false, %land.lhs.true ], [ false, %entry ], [ %cmp.i.i.i, %land.rhs ]
  ret i1 %4
}